libequihash.so.0 libequihash #MINVER#
 _ZN4_POW11unserializeEjjPKhtS1_j@Base 1.0
 _ZN4_POW5Proof4dumpEv@Base 1.0
 _ZN4_POW5Proof6verifyEv@Base 1.0
 _ZN4_POW5Proof9serializeEPhm@Base 1.0
 _ZN4_POW8Equihash10FillMemoryEj@Base 1.0
 _ZN4_POW8Equihash11ResolveTreeENS_4ForkE@Base 1.0
 _ZN4_POW8Equihash16InitializeMemoryEv@Base 1.0
 _ZN4_POW8Equihash17ResolveCollisionsEb@Base 1.0
 _ZN4_POW8Equihash18ResolveTreeByLevelENS_4ForkEj@Base 1.0
 _ZN4_POW8Equihash9FindProofEv@Base 1.0
 _ZN4_POW8EquihashD1Ev@Base 1.0
 _ZN4_POW8EquihashD2Ev@Base 1.0
 _ZNK4_POW5ProofeqERKS0_@Base 1.0
 _ZNSt12_Destroy_auxILb0EE9__destroyIPN4_POW5ProofEEEvT_S5_@Base 1.0
 _ZNSt12_Destroy_auxILb0EE9__destroyIPN4_POW5TupleEEEvT_S5_@Base 1.0
 _ZNSt6vectorIN4_POW5ProofESaIS1_EE17_M_default_appendEm@Base 1.0
 _ZNSt6vectorIN4_POW5ProofESaIS1_EE17_M_realloc_insertIJS1_EEEvN9__gnu_cxx17__normal_iteratorIPS1_S3_EEDpOT_@Base 1.0
 _ZNSt6vectorIN4_POW5TupleESaIS1_EED1Ev@Base 1.0
 _ZNSt6vectorIN4_POW5TupleESaIS1_EED2Ev@Base 1.0
 _ZNSt6vectorIS_IN4_POW4ForkESaIS1_EESaIS3_EE17_M_default_appendEm@Base 1.0
 _ZNSt6vectorIS_IN4_POW4ForkESaIS1_EESaIS3_EE17_M_realloc_insertIJRKS3_EEEvN9__gnu_cxx17__normal_iteratorIPS3_S5_EEDpOT_@Base 1.0
 _ZNSt6vectorIjSaIjEE17_M_default_appendEm@Base 1.0
 solsize@Base 1.0
 solve@Base 1.0
 verify@Base 1.0
